target datalayout = "e-m:e-p270:32:32-p271:32:32-p272:64:64-i64:64-i128:128-f80:128-n8:16:32:64-S128"
target triple = "x86_64-pc-linux-gnu"

%struct._stritem = type { ptr, ptr, ptr, i32, i32, i32, i16, i16, i8, i8, [0 x %union.anon] }
%union.anon = type { i64 }
%struct.item_hdr = type { i32, i32, i16 }

; Function Attrs: nounwind uwtable
define dso_local zeroext i1 @storage_validate_item(ptr noundef %0, ptr noundef %1) #0 {
  %3 = alloca i1, align 1
  %4 = alloca ptr, align 8
  %5 = alloca ptr, align 8
  %6 = alloca ptr, align 8
  %7 = alloca i32, align 4
  store ptr %0, ptr %4, align 8, !tbaa !4
  store ptr %1, ptr %5, align 8, !tbaa !8
  call void @llvm.lifetime.start.p0(i64 8, ptr %6) #13
  %8 = load ptr, ptr %5, align 8, !tbaa !8
  %9 = getelementptr inbounds nuw %struct._stritem, ptr %8, i32 0, i32 10
  %10 = load ptr, ptr %5, align 8, !tbaa !8
  %11 = getelementptr inbounds nuw %struct._stritem, ptr %10, i32 0, i32 9
  %12 = load i8, ptr %11, align 1, !tbaa !10
  %13 = zext i8 %12 to i32
  %14 = sext i32 %13 to i64
  %15 = getelementptr inbounds i8, ptr %9, i64 %14
  %16 = getelementptr inbounds i8, ptr %15, i64 1
  %17 = load ptr, ptr %5, align 8, !tbaa !8
  %18 = getelementptr inbounds nuw %struct._stritem, ptr %17, i32 0, i32 7
  %19 = load i16, ptr %18, align 2, !tbaa !11
  %20 = zext i16 %19 to i32
  %21 = and i32 %20, 256
  %22 = icmp ne i32 %21, 0
  %23 = select i1 %22, i64 4, i64 0
  %24 = getelementptr inbounds nuw i8, ptr %16, i64 %23
  %25 = load ptr, ptr %5, align 8, !tbaa !8
  %26 = getelementptr inbounds nuw %struct._stritem, ptr %25, i32 0, i32 7
  %27 = load i16, ptr %26, align 2, !tbaa !11
  %28 = zext i16 %27 to i32
  %29 = and i32 %28, 2
  %30 = icmp ne i32 %29, 0
  %31 = select i1 %30, i64 8, i64 0
  %32 = getelementptr inbounds nuw i8, ptr %24, i64 %31
  store ptr %32, ptr %6, align 8, !tbaa !4
  %33 = load ptr, ptr %4, align 8, !tbaa !4
  %34 = load ptr, ptr %6, align 8, !tbaa !4
  %35 = getelementptr inbounds nuw %struct.item_hdr, ptr %34, i32 0, i32 2
  %36 = load i16, ptr %35, align 4, !tbaa !13
  %37 = zext i16 %36 to i32
  %38 = load ptr, ptr %6, align 8, !tbaa !4
  %39 = getelementptr inbounds nuw %struct.item_hdr, ptr %38, i32 0, i32 0
  %40 = load i32, ptr %39, align 4, !tbaa !16
  %41 = zext i32 %40 to i64
  %42 = call i32 @extstore_check(ptr noundef %33, i32 noundef %37, i64 noundef %41)
  %43 = icmp ne i32 %42, 0
  br i1 %43, label %44, label %45

44:                                               ; preds = %2
  store i1 false, ptr %3, align 1
  store i32 1, ptr %7, align 4
  br label %46

45:                                               ; preds = %2
  store i1 true, ptr %3, align 1
  store i32 1, ptr %7, align 4
  br label %46

46:                                               ; preds = %45, %44
  call void @llvm.lifetime.end.p0(i64 8, ptr %6) #13
  %47 = load i1, ptr %3, align 1
  ret i1 %47
}