; Function Attrs: nounwind uwtable
define dso_local zeroext i1 @storage_validate_item(ptr noundef %0, ptr noundef readonly captures(none) %1) local_unnamed_addr #0 {
  %3 = getelementptr inbounds nuw i8, ptr %1, i64 48
  %4 = getelementptr inbounds nuw i8, ptr %1, i64 41
  %5 = load i8, ptr %4, align 1, !tbaa !4
  %6 = zext i8 %5 to i64
  %7 = getelementptr inbounds nuw i8, ptr %3, i64 %6
  %8 = getelementptr inbounds nuw i8, ptr %7, i64 1
  %9 = getelementptr inbounds nuw i8, ptr %1, i64 38
  %10 = load i16, ptr %9, align 2, !tbaa !7
  %11 = zext i16 %10 to i32
  %12 = lshr i32 %11, 6
  %13 = and i32 %12, 4
  %14 = zext nneg i32 %13 to i64
  %15 = getelementptr inbounds nuw i8, ptr %8, i64 %14
  %16 = shl nuw nsw i32 %11, 2
  %17 = and i32 %16, 8
  %18 = zext nneg i32 %17 to i64
  %19 = getelementptr inbounds nuw i8, ptr %15, i64 %18
  %20 = getelementptr inbounds nuw i8, ptr %19, i64 8
  %21 = load i16, ptr %20, align 4, !tbaa !9
  %22 = zext i16 %21 to i32
  %23 = load i32, ptr %19, align 4, !tbaa !12
  %24 = zext i32 %23 to i64
  %25 = tail call i32 @extstore_check(ptr noundef %0, i32 noundef %22, i64 noundef %24) #21
  %.not = icmp eq i32 %25, 0
  ret i1 %.not
}